; ModuleID = 'source-C-CXX/25/1302.c'
source_filename = "source-C-CXX/25/1302.c"
target datalayout = "e-m:e-p270:32:32-p271:32:32-p272:64:64-i64:64-f80:128-n8:16:32:64-S128"
target triple = "x86_64-pc-linux-gnu"

; Function Attrs: nounwind sspstrong uwtable
define dso_local i32 @main() local_unnamed_addr #0 {
  %1 = alloca [1000 x i8], align 16
  %2 = alloca [1000 x i8], align 16
  %3 = getelementptr inbounds [1000 x i8], [1000 x i8]* %1, i64 0, i64 0
  call void @llvm.lifetime.start.p0i8(i64 1000, i8* nonnull %3) #4
  %4 = getelementptr inbounds [1000 x i8], [1000 x i8]* %2, i64 0, i64 0
  call void @llvm.lifetime.start.p0i8(i64 1000, i8* nonnull %4) #4
  %5 = call i32 (i8*, ...) bitcast (i32 (...)* @gets to i32 (i8*, ...)*)(i8* nonnull %3) #4
  br label %6

6:                                                ; preds = %17, %0
  %7 = phi i64 [ 0, %0 ], [ %18, %17 ]
  %8 = phi i32 [ 0, %0 ], [ %19, %17 ]
  br label %9

9:                                                ; preds = %6, %20
  %10 = phi i64 [ %21, %20 ], [ %7, %6 ]
  %11 = getelementptr inbounds [1000 x i8], [1000 x i8]* %1, i64 0, i64 %10
  %12 = load i8, i8* %11, align 1, !tbaa !5
  switch i8 %12, label %13 [
    i8 0, label %28
    i8 32, label %20
  ]

13:                                               ; preds = %9
  %14 = zext i32 %8 to i64
  %15 = getelementptr inbounds [1000 x i8], [1000 x i8]* %2, i64 0, i64 %14
  store i8 %12, i8* %15, align 1, !tbaa !5
  %16 = add nuw i64 %10, 1
  br label %17

17:                                               ; preds = %13, %25
  %18 = phi i64 [ %21, %25 ], [ %16, %13 ]
  %19 = add nuw nsw i32 %8, 1
  br label %6, !llvm.loop !8

20:                                               ; preds = %9
  %21 = add nuw i64 %10, 1
  %22 = getelementptr inbounds [1000 x i8], [1000 x i8]* %1, i64 0, i64 %21
  %23 = load i8, i8* %22, align 1, !tbaa !5
  %24 = icmp eq i8 %23, 32
  br i1 %24, label %9, label %25, !llvm.loop !8

25:                                               ; preds = %20
  %26 = zext i32 %8 to i64
  %27 = getelementptr inbounds [1000 x i8], [1000 x i8]* %2, i64 0, i64 %26
  store i8 32, i8* %27, align 1, !tbaa !5
  br label %17

28:                                               ; preds = %9
  %29 = zext i32 %8 to i64
  %30 = getelementptr inbounds [1000 x i8], [1000 x i8]* %2, i64 0, i64 %29
  store i8 0, i8* %30, align 1, !tbaa !5
  %31 = call i32 @puts(i8* nonnull %4)
  call void @llvm.lifetime.end.p0i8(i64 1000, i8* nonnull %4) #4
  call void @llvm.lifetime.end.p0i8(i64 1000, i8* nonnull %3) #4
  ret i32 0
}

; Function Attrs: argmemonly mustprogress nofree nosync nounwind willreturn
declare void @llvm.lifetime.start.p0i8(i64 immarg, i8* nocapture) #1

declare i32 @gets(...) local_unnamed_addr #2

; Function Attrs: argmemonly mustprogress nofree nosync nounwind willreturn
declare void @llvm.lifetime.end.p0i8(i64 immarg, i8* nocapture) #1

; Function Attrs: nofree nounwind
declare noundef i32 @puts(i8* nocapture noundef readonly) local_unnamed_addr #3


!llvm.module.flags = !{!0, !1, !2, !3}
!llvm.ident = !{!4}

!0 = !{i32 1, !"wchar_size", i32 4}
!1 = !{i32 7, !"PIC Level", i32 2}
!2 = !{i32 7, !"PIE Level", i32 2}
!3 = !{i32 7, !"uwtable", i32 1}
!4 = !{!"clang version 13.0.0"}
!5 = !{!6, !6, i64 0}
!6 = !{!"omnipotent char", !7, i64 0}
!7 = !{!"Simple C/C++ TBAA"}
!8 = distinct !{!8, !9}
!9 = !{!"llvm.loop.mustprogress"}
